; Function Attrs: mustprogress nofree norecurse nosync nounwind willreturn memory(argmem: read) uwtable
define hidden nonnull ptr @VP8StatusMessage(ptr noundef readonly captures(address_is_null) %0) local_unnamed_addr #6 {
  %2 = icmp eq ptr %0, null
  br i1 %2, label %6, label %3

3:                                                ; preds = %1
  %4 = getelementptr inbounds nuw i8, ptr %0, i64 8
  %5 = load ptr, ptr %4, align 8, !tbaa !23
  %.not = icmp eq ptr %5, null
  %.str.1. = select i1 %.not, ptr @.str.1, ptr %5
  br label %6

6:                                                ; preds = %3, %1
  %.0 = phi ptr [ @.str, %1 ], [ %.str.1., %3 ]
  ret ptr %.0
}